target datalayout = "e-m:e-p270:32:32-p271:32:32-p272:64:64-i64:64-i128:128-f80:128-n8:16:32:64-S128"
target triple = "x86_64-pc-linux-gnu"

%struct.PJ_LP = type { double, double }
%struct.PJconsts = type { ptr, ptr, ptr, ptr, ptr, ptr, ptr, ptr, ptr, ptr, ptr, ptr, i32, ptr, ptr, ptr, ptr, ptr, ptr, ptr, ptr, double, double, double, double, double, double, double, double, double, double, double, double, double, double, double, double, double, double, double, double, double, double, i32, i32, i32, i32, i32, i32, i32, i32, i32, i32, i32, ptr, ptr, ptr, ptr, ptr, ptr, double, double, double, double, double, double, double, double, double, double, double, i32, [7 x double], i32, ptr, ptr, double, double, i32, [4 x i8], %"class.std::shared_ptr", i8, double, i8, %"class.std::__cxx11::basic_string", %"class.std::__cxx11::basic_string", %"class.std::__cxx11::basic_string", i8, %"class.std::vector", i32, %"class.std::vector.3", i32, i8, i8, i8, ptr }
%"class.std::shared_ptr" = type { %"class.std::__shared_ptr" }
%"class.std::__shared_ptr" = type { ptr, %"class.std::__shared_count" }
%"class.std::__shared_count" = type { ptr }
%"class.std::__cxx11::basic_string" = type { %"struct.std::__cxx11::basic_string<char>::_Alloc_hider", i64, %union.anon }
%"struct.std::__cxx11::basic_string<char>::_Alloc_hider" = type { ptr }
%union.anon = type { i64, [8 x i8] }
%"class.std::vector" = type { %"struct.std::_Vector_base" }
%"struct.std::_Vector_base" = type { %"struct.std::_Vector_base<osgeo::proj::operation::GridDescription, std::allocator<osgeo::proj::operation::GridDescription>>::_Vector_impl" }
%"struct.std::_Vector_base<osgeo::proj::operation::GridDescription, std::allocator<osgeo::proj::operation::GridDescription>>::_Vector_impl" = type { %"struct.std::_Vector_base<osgeo::proj::operation::GridDescription, std::allocator<osgeo::proj::operation::GridDescription>>::_Vector_impl_data" }
%"struct.std::_Vector_base<osgeo::proj::operation::GridDescription, std::allocator<osgeo::proj::operation::GridDescription>>::_Vector_impl_data" = type { ptr, ptr, ptr }
%"class.std::vector.3" = type { %"struct.std::_Vector_base.4" }
%"struct.std::_Vector_base.4" = type { %"struct.std::_Vector_base<PJCoordOperation, std::allocator<PJCoordOperation>>::_Vector_impl" }
%"struct.std::_Vector_base<PJCoordOperation, std::allocator<PJCoordOperation>>::_Vector_impl" = type { %"struct.std::_Vector_base<PJCoordOperation, std::allocator<PJCoordOperation>>::_Vector_impl_data" }
%"struct.std::_Vector_base<PJCoordOperation, std::allocator<PJCoordOperation>>::_Vector_impl_data" = type { ptr, ptr, ptr }
%struct.PJ_XY = type { double, double }
%"struct.pj_igh_o_ns::pj_igh_o_data" = type { [12 x ptr], double }

; Function Attrs: mustprogress uwtable
define internal { double, double } @_ZL15igh_o_s_forward5PJ_LPP8PJconsts(double %0, double %1, ptr noundef %2) #0 {
  %4 = alloca %struct.PJ_XY, align 8
  %5 = alloca %struct.PJ_LP, align 8
  %6 = alloca ptr, align 8
  %7 = alloca ptr, align 8
  %8 = alloca i32, align 4
  %9 = alloca %struct.PJ_XY, align 8
  %10 = alloca %struct.PJ_LP, align 8
  %11 = getelementptr inbounds nuw { double, double }, ptr %5, i32 0, i32 0
  store double %0, ptr %11, align 8
  %12 = getelementptr inbounds nuw { double, double }, ptr %5, i32 0, i32 1
  store double %1, ptr %12, align 8
  store ptr %2, ptr %6, align 8, !tbaa !3
  call void @llvm.lifetime.start.p0(i64 8, ptr %7) #7
  %13 = load ptr, ptr %6, align 8, !tbaa !3
  %14 = getelementptr inbounds nuw %struct.PJconsts, ptr %13, i32 0, i32 11
  %15 = load ptr, ptr %14, align 8, !tbaa !43
  store ptr %15, ptr %7, align 8, !tbaa !41
  call void @llvm.lifetime.start.p0(i64 4, ptr %8) #7
  %16 = getelementptr inbounds nuw %struct.PJ_LP, ptr %5, i32 0, i32 1
  %17 = load double, ptr %16, align 8, !tbaa !66
  %18 = fcmp oge double %17, 0x3FE6C069E29BDA5B
  br i1 %18, label %19, label %32

19:                                               ; preds = %3
  %20 = getelementptr inbounds nuw %struct.PJ_LP, ptr %5, i32 0, i32 0
  %21 = load double, ptr %20, align 8, !tbaa !64
  %22 = fcmp ole double %21, 0xBFF921FB54442D18
  br i1 %22, label %23, label %24

23:                                               ; preds = %19
  store i32 1, ptr %8, align 4, !tbaa !55
  br label %31

24:                                               ; preds = %19
  %25 = getelementptr inbounds nuw %struct.PJ_LP, ptr %5, i32 0, i32 0
  %26 = load double, ptr %25, align 8, !tbaa !64
  %27 = fcmp oge double %26, 0x3FF0C152382D7365
  br i1 %27, label %28, label %29

28:                                               ; preds = %24
  store i32 3, ptr %8, align 4, !tbaa !55
  br label %30

29:                                               ; preds = %24
  store i32 2, ptr %8, align 4, !tbaa !55
  br label %30

30:                                               ; preds = %29, %28
  br label %31

31:                                               ; preds = %30, %23
  br label %81

32:                                               ; preds = %3
  %33 = getelementptr inbounds nuw %struct.PJ_LP, ptr %5, i32 0, i32 1
  %34 = load double, ptr %33, align 8, !tbaa !66
  %35 = fcmp oge double %34, 0.000000e+00
  br i1 %35, label %36, label %49

36:                                               ; preds = %32
  %37 = getelementptr inbounds nuw %struct.PJ_LP, ptr %5, i32 0, i32 0
  %38 = load double, ptr %37, align 8, !tbaa !64
  %39 = fcmp ole double %38, 0xBFF921FB54442D18
  br i1 %39, label %40, label %41

40:                                               ; preds = %36
  store i32 4, ptr %8, align 4, !tbaa !55
  br label %48

41:                                               ; preds = %36
  %42 = getelementptr inbounds nuw %struct.PJ_LP, ptr %5, i32 0, i32 0
  %43 = load double, ptr %42, align 8, !tbaa !64
  %44 = fcmp oge double %43, 0x3FF0C152382D7365
  br i1 %44, label %45, label %46

45:                                               ; preds = %41
  store i32 6, ptr %8, align 4, !tbaa !55
  br label %47

46:                                               ; preds = %41
  store i32 5, ptr %8, align 4, !tbaa !55
  br label %47

47:                                               ; preds = %46, %45
  br label %48

48:                                               ; preds = %47, %40
  br label %80

49:                                               ; preds = %32
  %50 = getelementptr inbounds nuw %struct.PJ_LP, ptr %5, i32 0, i32 1
  %51 = load double, ptr %50, align 8, !tbaa !66
  %52 = fcmp oge double %51, 0xBFE6C069E29BDA5B
  br i1 %52, label %53, label %66

53:                                               ; preds = %49
  %54 = getelementptr inbounds nuw %struct.PJ_LP, ptr %5, i32 0, i32 0
  %55 = load double, ptr %54, align 8, !tbaa !64
  %56 = fcmp ole double %55, 0xBFF0C152382D7365
  br i1 %56, label %57, label %58

57:                                               ; preds = %53
  store i32 7, ptr %8, align 4, !tbaa !55
  br label %65

58:                                               ; preds = %53
  %59 = getelementptr inbounds nuw %struct.PJ_LP, ptr %5, i32 0, i32 0
  %60 = load double, ptr %59, align 8, !tbaa !64
  %61 = fcmp oge double %60, 0x3FF921FB54442D18
  br i1 %61, label %62, label %63

62:                                               ; preds = %58
  store i32 9, ptr %8, align 4, !tbaa !55
  br label %64

63:                                               ; preds = %58
  store i32 8, ptr %8, align 4, !tbaa !55
  br label %64

64:                                               ; preds = %63, %62
  br label %65

65:                                               ; preds = %64, %57
  br label %79

66:                                               ; preds = %49
  %67 = getelementptr inbounds nuw %struct.PJ_LP, ptr %5, i32 0, i32 0
  %68 = load double, ptr %67, align 8, !tbaa !64
  %69 = fcmp ole double %68, 0xBFF0C152382D7365
  br i1 %69, label %70, label %71

70:                                               ; preds = %66
  store i32 10, ptr %8, align 4, !tbaa !55
  br label %78

71:                                               ; preds = %66
  %72 = getelementptr inbounds nuw %struct.PJ_LP, ptr %5, i32 0, i32 0
  %73 = load double, ptr %72, align 8, !tbaa !64
  %74 = fcmp oge double %73, 0x3FF921FB54442D18
  br i1 %74, label %75, label %76

75:                                               ; preds = %71
  store i32 12, ptr %8, align 4, !tbaa !55
  br label %77

76:                                               ; preds = %71
  store i32 11, ptr %8, align 4, !tbaa !55
  br label %77

77:                                               ; preds = %76, %75
  br label %78

78:                                               ; preds = %77, %70
  br label %79

79:                                               ; preds = %78, %65
  br label %80

80:                                               ; preds = %79, %48
  br label %81

81:                                               ; preds = %80, %31
  %82 = load ptr, ptr %7, align 8, !tbaa !41
  %83 = getelementptr inbounds nuw %"struct.pj_igh_o_ns::pj_igh_o_data", ptr %82, i32 0, i32 0
  %84 = load i32, ptr %8, align 4, !tbaa !55
  %85 = sub nsw i32 %84, 1
  %86 = sext i32 %85 to i64
  %87 = getelementptr inbounds [12 x ptr], ptr %83, i64 0, i64 %86
  %88 = load ptr, ptr %87, align 8, !tbaa !3
  %89 = getelementptr inbounds nuw %struct.PJconsts, ptr %88, i32 0, i32 60
  %90 = load double, ptr %89, align 8, !tbaa !59
  %91 = getelementptr inbounds nuw %struct.PJ_LP, ptr %5, i32 0, i32 0
  %92 = load double, ptr %91, align 8, !tbaa !64
  %93 = fsub double %92, %90
  store double %93, ptr %91, align 8, !tbaa !64
  call void @llvm.lifetime.start.p0(i64 16, ptr %9) #7
  %94 = load ptr, ptr %7, align 8, !tbaa !41
  %95 = getelementptr inbounds nuw %"struct.pj_igh_o_ns::pj_igh_o_data", ptr %94, i32 0, i32 0
  %96 = load i32, ptr %8, align 4, !tbaa !55
  %97 = sub nsw i32 %96, 1
  %98 = sext i32 %97 to i64
  %99 = getelementptr inbounds [12 x ptr], ptr %95, i64 0, i64 %98
  %100 = load ptr, ptr %99, align 8, !tbaa !3
  %101 = getelementptr inbounds nuw %struct.PJconsts, ptr %100, i32 0, i32 13
  %102 = load ptr, ptr %101, align 8, !tbaa !44
  call void @llvm.memcpy.p0.p0.i64(ptr align 8 %10, ptr align 8 %5, i64 16, i1 false), !tbaa.struct !45
  %103 = load ptr, ptr %7, align 8, !tbaa !41
  %104 = getelementptr inbounds nuw %"struct.pj_igh_o_ns::pj_igh_o_data", ptr %103, i32 0, i32 0
  %105 = load i32, ptr %8, align 4, !tbaa !55
  %106 = sub nsw i32 %105, 1
  %107 = sext i32 %106 to i64
  %108 = getelementptr inbounds [12 x ptr], ptr %104, i64 0, i64 %107
  %109 = load ptr, ptr %108, align 8, !tbaa !3
  %110 = getelementptr inbounds nuw { double, double }, ptr %10, i32 0, i32 0
  %111 = load double, ptr %110, align 8
  %112 = getelementptr inbounds nuw { double, double }, ptr %10, i32 0, i32 1
  %113 = load double, ptr %112, align 8
  %114 = call { double, double } %102(double %111, double %113, ptr noundef %109)
  %115 = getelementptr inbounds nuw { double, double }, ptr %9, i32 0, i32 0
  %116 = extractvalue { double, double } %114, 0
  store double %116, ptr %115, align 8
  %117 = getelementptr inbounds nuw { double, double }, ptr %9, i32 0, i32 1
  %118 = extractvalue { double, double } %114, 1
  store double %118, ptr %117, align 8
  call void @llvm.memcpy.p0.p0.i64(ptr align 8 %4, ptr align 8 %9, i64 16, i1 false), !tbaa.struct !45
  call void @llvm.lifetime.end.p0(i64 16, ptr %9) #7
  %119 = load ptr, ptr %7, align 8, !tbaa !41
  %120 = getelementptr inbounds nuw %"struct.pj_igh_o_ns::pj_igh_o_data", ptr %119, i32 0, i32 0
  %121 = load i32, ptr %8, align 4, !tbaa !55
  %122 = sub nsw i32 %121, 1
  %123 = sext i32 %122 to i64
  %124 = getelementptr inbounds [12 x ptr], ptr %120, i64 0, i64 %123
  %125 = load ptr, ptr %124, align 8, !tbaa !3
  %126 = getelementptr inbounds nuw %struct.PJconsts, ptr %125, i32 0, i32 62
  %127 = load double, ptr %126, align 8, !tbaa !58
  %128 = getelementptr inbounds nuw %struct.PJ_XY, ptr %4, i32 0, i32 0
  %129 = load double, ptr %128, align 8, !tbaa !62
  %130 = fadd double %129, %127
  store double %130, ptr %128, align 8, !tbaa !62
  %131 = load ptr, ptr %7, align 8, !tbaa !41
  %132 = getelementptr inbounds nuw %"struct.pj_igh_o_ns::pj_igh_o_data", ptr %131, i32 0, i32 0
  %133 = load i32, ptr %8, align 4, !tbaa !55
  %134 = sub nsw i32 %133, 1
  %135 = sext i32 %134 to i64
  %136 = getelementptr inbounds [12 x ptr], ptr %132, i64 0, i64 %135
  %137 = load ptr, ptr %136, align 8, !tbaa !3
  %138 = getelementptr inbounds nuw %struct.PJconsts, ptr %137, i32 0, i32 63
  %139 = load double, ptr %138, align 8, !tbaa !51
  %140 = getelementptr inbounds nuw %struct.PJ_XY, ptr %4, i32 0, i32 1
  %141 = load double, ptr %140, align 8, !tbaa !47
  %142 = fadd double %141, %139
  store double %142, ptr %140, align 8, !tbaa !47
  call void @llvm.lifetime.end.p0(i64 4, ptr %8) #7
  call void @llvm.lifetime.end.p0(i64 8, ptr %7) #7
  %143 = load { double, double }, ptr %4, align 8
  ret { double, double } %143
}