; Function Attrs: mustprogress uwtable
define internal { double, double } @_ZL15igh_o_s_forward5PJ_LPP8PJconsts(double %0, double %1, ptr noundef readonly captures(none) %2) #0 {
  %4 = getelementptr inbounds nuw i8, ptr %2, i64 88
  %5 = load ptr, ptr %4, align 8, !tbaa !40
  %6 = fcmp ult double %1, 0x3FE6C069E29BDA5B
  br i1 %6, label %11, label %7

7:                                                ; preds = %3
  %8 = fcmp ugt double %0, 0xBFF921FB54442D18
  br i1 %8, label %9, label %26

9:                                                ; preds = %7
  %10 = fcmp ult double %0, 0x3FF0C152382D7365
  %. = select i1 %10, i64 1, i64 2
  br label %26

11:                                               ; preds = %3
  %12 = fcmp ult double %1, 0.000000e+00
  br i1 %12, label %17, label %13

13:                                               ; preds = %11
  %14 = fcmp ugt double %0, 0xBFF921FB54442D18
  br i1 %14, label %15, label %26

15:                                               ; preds = %13
  %16 = fcmp ult double %0, 0x3FF0C152382D7365
  %.26 = select i1 %16, i64 4, i64 5
  br label %26

17:                                               ; preds = %11
  %18 = fcmp ult double %1, 0xBFE6C069E29BDA5B
  %19 = fcmp ugt double %0, 0xBFF0C152382D7365
  br i1 %18, label %23, label %20

20:                                               ; preds = %17
  br i1 %19, label %21, label %26

21:                                               ; preds = %20
  %22 = fcmp ult double %0, 0x3FF921FB54442D18
  %.27 = select i1 %22, i64 7, i64 8
  br label %26

23:                                               ; preds = %17
  br i1 %19, label %24, label %26

24:                                               ; preds = %23
  %25 = fcmp ult double %0, 0x3FF921FB54442D18
  %.28 = select i1 %25, i64 10, i64 11
  br label %26

26:                                               ; preds = %24, %23, %21, %20, %15, %13, %9, %7
  %.0 = phi i64 [ 0, %7 ], [ %., %9 ], [ 3, %13 ], [ %.26, %15 ], [ 6, %20 ], [ %.27, %21 ], [ 9, %23 ], [ %.28, %24 ]
  %27 = getelementptr inbounds nuw [12 x ptr], ptr %5, i64 0, i64 %.0
  %28 = load ptr, ptr %27, align 8, !tbaa !42
  %29 = getelementptr inbounds nuw i8, ptr %28, i64 440
  %30 = load double, ptr %29, align 8, !tbaa !46
  %31 = fsub double %0, %30
  %32 = getelementptr inbounds nuw i8, ptr %28, i64 104
  %33 = load ptr, ptr %32, align 8, !tbaa !50
  %34 = tail call { double, double } %33(double %31, double %1, ptr noundef %28)
  %35 = extractvalue { double, double } %34, 0
  %36 = extractvalue { double, double } %34, 1
  %37 = load ptr, ptr %27, align 8, !tbaa !42
  %38 = getelementptr inbounds nuw i8, ptr %37, i64 456
  %39 = load double, ptr %38, align 8, !tbaa !44
  %40 = fadd double %35, %39
  %41 = getelementptr inbounds nuw i8, ptr %37, i64 464
  %42 = load double, ptr %41, align 8, !tbaa !45
  %43 = fadd double %36, %42
  %.fca.0.insert = insertvalue { double, double } poison, double %40, 0
  %.fca.1.insert = insertvalue { double, double } %.fca.0.insert, double %43, 1
  ret { double, double } %.fca.1.insert
}